target datalayout = "e-m:e-p270:32:32-p271:32:32-p272:64:64-i64:64-i128:128-f80:128-n8:16:32:64-S128"
target triple = "x86_64-pc-linux-gnu"

%"class.pxrInternal_v0_24__pxrReserved__::GfInterval" = type { %"struct.pxrInternal_v0_24__pxrReserved__::GfInterval::_Bound", %"struct.pxrInternal_v0_24__pxrReserved__::GfInterval::_Bound" }
%"struct.pxrInternal_v0_24__pxrReserved__::GfInterval::_Bound" = type <{ double, i8, [7 x i8] }>

; Function Attrs: mustprogress nounwind uwtable
define linkonce_odr void @_ZN32pxrInternal_v0_24__pxrReserved__10GfInterval6_BoundC2Edb(ptr noundef nonnull align 8 dereferenceable(9) %0, double noundef %1, i1 noundef zeroext %2) unnamed_addr #3 comdat align 2 {
  %4 = alloca ptr, align 8
  %5 = alloca double, align 8
  %6 = alloca i8, align 1
  store ptr %0, ptr %4, align 8
  store double %1, ptr %5, align 8
  %7 = zext i1 %2 to i8
  store i8 %7, ptr %6, align 1
  %8 = load ptr, ptr %4, align 8
  %9 = getelementptr inbounds nuw %"struct.pxrInternal_v0_24__pxrReserved__::GfInterval::_Bound", ptr %8, i32 0, i32 0
  %10 = load double, ptr %5, align 8
  store double %10, ptr %9, align 8
  %11 = getelementptr inbounds nuw %"struct.pxrInternal_v0_24__pxrReserved__::GfInterval::_Bound", ptr %8, i32 0, i32 1
  %12 = load i8, ptr %6, align 1
  %13 = trunc i8 %12 to i1
  %14 = zext i1 %13 to i8
  store i8 %14, ptr %11, align 8
  %15 = getelementptr inbounds nuw %"struct.pxrInternal_v0_24__pxrReserved__::GfInterval::_Bound", ptr %8, i32 0, i32 0
  %16 = load double, ptr %15, align 8
  %17 = call noundef double @_ZNSt14numeric_limitsIdE8infinityEv() #11
  %18 = fneg double %17
  %19 = fcmp oeq double %16, %18
  br i1 %19, label %25, label %20

20:                                               ; preds = %3
  %21 = getelementptr inbounds nuw %"struct.pxrInternal_v0_24__pxrReserved__::GfInterval::_Bound", ptr %8, i32 0, i32 0
  %22 = load double, ptr %21, align 8
  %23 = call noundef double @_ZNSt14numeric_limitsIdE8infinityEv() #11
  %24 = fcmp oeq double %22, %23
  br i1 %24, label %25, label %27

25:                                               ; preds = %20, %3
  %26 = getelementptr inbounds nuw %"struct.pxrInternal_v0_24__pxrReserved__::GfInterval::_Bound", ptr %8, i32 0, i32 1
  store i8 0, ptr %26, align 8
  br label %27

27:                                               ; preds = %25, %20
  ret void
}

; Function Attrs: mustprogress uwtable
define linkonce_odr void @_ZN32pxrInternal_v0_24__pxrReserved__10GfIntervalC2Eddbb(ptr noundef nonnull align 8 dereferenceable(32) %0, double noundef %1, double noundef %2, i1 noundef zeroext %3, i1 noundef zeroext %4) unnamed_addr #0 comdat align 2 {
  %6 = alloca ptr, align 8
  %7 = alloca double, align 8
  %8 = alloca double, align 8
  %9 = alloca i8, align 1
  %10 = alloca i8, align 1
  store ptr %0, ptr %6, align 8
  store double %1, ptr %7, align 8
  store double %2, ptr %8, align 8
  %11 = zext i1 %3 to i8
  store i8 %11, ptr %9, align 1
  %12 = zext i1 %4 to i8
  store i8 %12, ptr %10, align 1
  %13 = load ptr, ptr %6, align 8
  %14 = getelementptr inbounds nuw %"class.pxrInternal_v0_24__pxrReserved__::GfInterval", ptr %13, i32 0, i32 0
  %15 = load double, ptr %7, align 8
  %16 = load i8, ptr %9, align 1
  %17 = trunc i8 %16 to i1
  call void @_ZN32pxrInternal_v0_24__pxrReserved__10GfInterval6_BoundC2Edb(ptr noundef nonnull align 8 dereferenceable(9) %14, double noundef %15, i1 noundef zeroext %17)
  %18 = getelementptr inbounds nuw %"class.pxrInternal_v0_24__pxrReserved__::GfInterval", ptr %13, i32 0, i32 1
  %19 = load double, ptr %8, align 8
  %20 = load i8, ptr %10, align 1
  %21 = trunc i8 %20 to i1
  call void @_ZN32pxrInternal_v0_24__pxrReserved__10GfInterval6_BoundC2Edb(ptr noundef nonnull align 8 dereferenceable(9) %18, double noundef %19, i1 noundef zeroext %21)
  ret void
}

; Function Attrs: mustprogress nounwind uwtable
define linkonce_odr noundef double @_ZNSt14numeric_limitsIdE8infinityEv() #3 comdat align 2 {
  ret double 0x7FF0000000000000
}

; Function Attrs: mustprogress uwtable
define linkonce_odr void @_ZN32pxrInternal_v0_24__pxrReserved__10GfInterval15GetFullIntervalEv(ptr dead_on_unwind noalias writable sret(%"class.pxrInternal_v0_24__pxrReserved__::GfInterval") align 8 %0) #0 comdat align 2 {
  %2 = call noundef double @_ZNSt14numeric_limitsIdE8infinityEv() #11
  %3 = fneg double %2
  %4 = call noundef double @_ZNSt14numeric_limitsIdE8infinityEv() #11
  call void @_ZN32pxrInternal_v0_24__pxrReserved__10GfIntervalC2Eddbb(ptr noundef nonnull align 8 dereferenceable(32) %0, double noundef %3, double noundef %4, i1 noundef zeroext false, i1 noundef zeroext false)
  ret void
}

; Function Attrs: mustprogress uwtable
define noundef zeroext i1 @_ZN32pxrInternal_v0_24__pxrReserved__12UsdAttribute21GetUnionedTimeSamplesERKSt6vectorIS0_SaIS0_EEPS1_IdSaIdEE(ptr noundef nonnull align 8 dereferenceable(24) %0, ptr noundef %1) #0 align 2 {
  %3 = alloca ptr, align 8
  %4 = alloca ptr, align 8
  %5 = alloca %"class.pxrInternal_v0_24__pxrReserved__::GfInterval", align 8
  store ptr %0, ptr %3, align 8
  store ptr %1, ptr %4, align 8
  %6 = load ptr, ptr %3, align 8
  call void @_ZN32pxrInternal_v0_24__pxrReserved__10GfInterval15GetFullIntervalEv(ptr dead_on_unwind writable sret(%"class.pxrInternal_v0_24__pxrReserved__::GfInterval") align 8 %5)
  %7 = load ptr, ptr %4, align 8
  %8 = call noundef zeroext i1 @_ZN32pxrInternal_v0_24__pxrReserved__12UsdAttribute31GetUnionedTimeSamplesInIntervalERKSt6vectorIS0_SaIS0_EERKNS_10GfIntervalEPS1_IdSaIdEE(ptr noundef nonnull align 8 dereferenceable(24) %6, ptr noundef nonnull align 8 dereferenceable(32) %5, ptr noundef %7)
  ret i1 %8
}